; Function Attrs: mustprogress nofree norecurse nosync nounwind willreturn memory(read, argmem: readwrite, inaccessiblemem: none) uwtable
define internal noundef i32 @opt_thp_ctl(ptr nocapture readnone %tsd, ptr nocapture readnone %mib, i64 %miblen, ptr noundef writeonly %oldp, ptr noundef %oldlenp, ptr noundef readnone %newp, i64 noundef %newlen) #10 {
entry:
  %oldval = alloca ptr, align 8
  %cmp = icmp ne ptr %newp, null
  %cmp1 = icmp ne i64 %newlen, 0
  %or.cond = or i1 %cmp, %cmp1
  br i1 %or.cond, label %label_return, label %do.end

do.end:                                           ; preds = %entry
  %0 = load i32, ptr @opt_thp, align 4
  %idxprom = zext i32 %0 to i64
  %arrayidx = getelementptr inbounds [0 x ptr], ptr @thp_mode_names, i64 0, i64 %idxprom
  %1 = load ptr, ptr %arrayidx, align 8
  store ptr %1, ptr %oldval, align 8
  %cmp3 = icmp ne ptr %oldp, null
  %cmp4 = icmp ne ptr %oldlenp, null
  %or.cond1 = and i1 %cmp3, %cmp4
  br i1 %or.cond1, label %if.then5, label %label_return

if.then5:                                         ; preds = %do.end
  %2 = load i64, ptr %oldlenp, align 8
  %cmp6.not = icmp eq i64 %2, 8
  br i1 %cmp6.not, label %if.end9, label %if.then7

if.then7:                                         ; preds = %if.then5
  %spec.select = tail call i64 @llvm.umin.i64(i64 %2, i64 8)
  call void @llvm.memcpy.p0.p0.i64(ptr nonnull align 1 %oldp, ptr nonnull align 8 %oldval, i64 %spec.select, i1 false)
  store i64 %spec.select, ptr %oldlenp, align 8
  br label %label_return

if.end9:                                          ; preds = %if.then5
  store ptr %1, ptr %oldp, align 8
  br label %label_return

label_return:                                     ; preds = %if.end9, %do.end, %entry, %if.then7
  %ret.0 = phi i32 [ 22, %if.then7 ], [ 1, %entry ], [ 0, %do.end ], [ 0, %if.end9 ]
  ret i32 %ret.0
}